target datalayout = "e-m:e-p270:32:32-p271:32:32-p272:64:64-i64:64-i128:128-f80:128-n8:16:32:64-S128"
target triple = "x86_64-pc-linux-gnu"

%"class.(anonymous namespace)::X86FixupVectorConstantsPass" = type { %"class.llvm::MachineFunctionPass", ptr, ptr, ptr }
%"class.llvm::MachineFunctionPass" = type { %"class.llvm::FunctionPass.base", %"class.llvm::MachineFunctionProperties", %"class.llvm::MachineFunctionProperties", %"class.llvm::MachineFunctionProperties" }
%"class.llvm::FunctionPass.base" = type { %"class.llvm::Pass.base" }
%"class.llvm::Pass.base" = type <{ ptr, ptr, ptr, i32 }>
%"class.llvm::MachineFunctionProperties" = type { %"class.std::bitset" }
%"class.std::bitset" = type { %"struct.std::_Base_bitset" }
%"struct.std::_Base_bitset" = type { i64 }
%"struct.llvm::Align" = type { i8 }
%class.anon = type { ptr, ptr, ptr }
%"class.llvm::ArrayRef.188" = type { ptr, i64 }
%struct.FixupEntry = type { i32, i32, i32, %"class.std::function" }
%"class.std::function" = type { %"class.std::_Function_base", ptr }
%"class.std::_Function_base" = type { %"union.std::_Any_data", ptr }
%"union.std::_Any_data" = type { %"union.std::_Nocopy_types" }
%"union.std::_Nocopy_types" = type { { i64, i64 } }
%"class.llvm::MCInstrDesc" = type { i16, i16, i8, i8, i16, i8, i8, i16, i16, i64, i64 }
%"class.llvm::ilist_node_impl.149" = type { %"class.llvm::ilist_node_base.150" }
%"class.llvm::ilist_node_base.150" = type { %"class.llvm::ilist_detail::node_base_prevnext.151" }
%"class.llvm::ilist_detail::node_base_prevnext.151" = type { %"class.llvm::PointerIntPair", ptr }
%"class.llvm::PointerIntPair" = type { %"struct.llvm::detail::PunnedPointer" }
%"struct.llvm::detail::PunnedPointer" = type { [8 x i8] }
%"class.llvm::MachineInstr" = type <{ %"class.llvm::ilist_node_with_parent.186", ptr, ptr, ptr, [3 x i8], %"class.llvm::ArrayRecycler<llvm::MachineOperand>::Capacity", i32, %"class.llvm::PointerSumType", %"class.llvm::DebugLoc", i32, i16, [2 x i8] }>
%"class.llvm::ilist_node_with_parent.186" = type { %"class.llvm::ilist_node.187" }
%"class.llvm::ilist_node.187" = type { %"class.llvm::ilist_node_impl.149" }
%"class.llvm::ArrayRecycler<llvm::MachineOperand>::Capacity" = type { i8 }
%"class.llvm::PointerSumType" = type { %"union.llvm::PointerSumType<llvm::MachineInstr::ExtraInfoInlineKinds, llvm::PointerSumTypeMember<0, llvm::MachineMemOperand *>, llvm::PointerSumTypeMember<1, llvm::MCSymbol *>, llvm::PointerSumTypeMember<2, llvm::MCSymbol *>, llvm::PointerSumTypeMember<3, llvm::MachineInstr::ExtraInfo *>>::StorageT" }
%"union.llvm::PointerSumType<llvm::MachineInstr::ExtraInfoInlineKinds, llvm::PointerSumTypeMember<0, llvm::MachineMemOperand *>, llvm::PointerSumTypeMember<1, llvm::MCSymbol *>, llvm::PointerSumTypeMember<2, llvm::MCSymbol *>, llvm::PointerSumTypeMember<3, llvm::MachineInstr::ExtraInfo *>>::StorageT" = type { i64 }
%"class.llvm::DebugLoc" = type { %"class.llvm::TypedTrackingMDRef" }
%"class.llvm::TypedTrackingMDRef" = type { %"class.llvm::TrackingMDRef" }
%"class.llvm::TrackingMDRef" = type { ptr }
%"class.llvm::TypeSize" = type { %"class.llvm::details::FixedOrScalableQuantity.base", [7 x i8] }
%"class.llvm::details::FixedOrScalableQuantity.base" = type <{ i64, i8 }>
%"class.llvm::Value" = type { i8, i8, i16, i32, ptr, ptr }
%"class.llvm::MCInstrInfo" = type <{ ptr, ptr, ptr, ptr, ptr, i32, [4 x i8] }>
%"class.llvm::MachineOperand" = type { i32, %union.anon.198, ptr, %"union.llvm::MachineOperand::ContentsUnion" }
%union.anon.198 = type { i32 }
%"union.llvm::MachineOperand::ContentsUnion" = type { %"class.llvm::ArrayRef.199" }
%"class.llvm::ArrayRef.199" = type { ptr, i64 }
%struct.anon.201 = type { %union.anon.202, i32 }
%union.anon.202 = type { ptr }

; Function Attrs: mustprogress nounwind uwtable
define linkonce_odr hidden noundef i32 @_ZN4llvm6detail19LeadingZerosCounterImLm8EE5countEm(i64 noundef %0) #1 comdat align 2 {
  %2 = alloca i32, align 4
  %3 = alloca i64, align 8
  store i64 %0, ptr %3, align 8
  %4 = load i64, ptr %3, align 8
  %5 = icmp eq i64 %4, 0
  br i1 %5, label %6, label %7

6:                                                ; preds = %1
  store i32 64, ptr %2, align 4
  br label %11

7:                                                ; preds = %1
  %8 = load i64, ptr %3, align 8
  %9 = call i64 @llvm.ctlz.i64(i64 %8, i1 true)
  %10 = trunc i64 %9 to i32
  store i32 %10, ptr %2, align 4
  br label %11

11:                                               ; preds = %7, %6
  %12 = load i32, ptr %2, align 4
  ret i32 %12
}

; Function Attrs: mustprogress nounwind uwtable
define linkonce_odr noundef i32 @_ZN4llvm11countl_zeroImEEiT_(i64 noundef %0) #1 comdat {
  %2 = alloca i64, align 8
  store i64 %0, ptr %2, align 8
  %3 = load i64, ptr %2, align 8
  %4 = call noundef i32 @_ZN4llvm6detail19LeadingZerosCounterImLm8EE5countEm(i64 noundef %3)
  ret i32 %4
}

; Function Attrs: mustprogress nounwind uwtable
define linkonce_odr hidden noundef i32 @_ZN4llvm7Log2_64Em(i64 noundef %0) #1 comdat {
  %2 = alloca i64, align 8
  store i64 %0, ptr %2, align 8
  %3 = load i64, ptr %2, align 8
  %4 = call noundef i32 @_ZN4llvm11countl_zeroImEEiT_(i64 noundef %3)
  %5 = sub nsw i32 63, %4
  ret i32 %5
}

; Function Attrs: mustprogress nounwind uwtable
define linkonce_odr hidden noundef zeroext i1 @_ZNKSt14_Function_base8_M_emptyEv(ptr noundef nonnull align 8 dereferenceable(24) %0) #1 comdat align 2 {
  %2 = alloca ptr, align 8
  store ptr %0, ptr %2, align 8
  %3 = load ptr, ptr %2, align 8
  %4 = getelementptr inbounds nuw %"class.std::_Function_base", ptr %3, i32 0, i32 1
  %5 = load ptr, ptr %4, align 8
  %6 = icmp ne ptr %5, null
  %7 = xor i1 %6, true
  ret i1 %7
}

; Function Attrs: mustprogress nounwind uwtable
define linkonce_odr hidden void @_ZN4llvm14MachineOperand8setIndexEi(ptr noundef nonnull align 8 dereferenceable(32) %0, i32 noundef %1) #1 comdat align 2 {
  %3 = alloca ptr, align 8
  %4 = alloca i32, align 4
  store ptr %0, ptr %3, align 8
  store i32 %1, ptr %4, align 4
  %5 = load ptr, ptr %3, align 8
  %6 = load i32, ptr %4, align 4
  %7 = getelementptr inbounds nuw %"class.llvm::MachineOperand", ptr %5, i32 0, i32 3
  %8 = getelementptr inbounds nuw %struct.anon.201, ptr %7, i32 0, i32 0
  store i32 %6, ptr %8, align 8
  ret void
}

; Function Attrs: mustprogress nounwind uwtable
define linkonce_odr hidden noundef nonnull align 8 dereferenceable(32) ptr @_ZN4llvm12MachineInstr10getOperandEj(ptr noundef nonnull align 8 dereferenceable(70) %0, i32 noundef %1) #1 comdat align 2 {
  %3 = alloca ptr, align 8
  %4 = alloca i32, align 4
  store ptr %0, ptr %3, align 8
  store i32 %1, ptr %4, align 4
  %5 = load ptr, ptr %3, align 8
  %6 = getelementptr inbounds nuw %"class.llvm::MachineInstr", ptr %5, i32 0, i32 3
  %7 = load ptr, ptr %6, align 8
  %8 = load i32, ptr %4, align 4
  %9 = zext i32 %8 to i64
  %10 = getelementptr inbounds %"class.llvm::MachineOperand", ptr %7, i64 %9
  ret ptr %10
}

; Function Attrs: mustprogress nounwind uwtable
define linkonce_odr hidden noundef nonnull align 8 dereferenceable(32) ptr @_ZNK4llvm11MCInstrInfo3getEj(ptr noundef nonnull align 8 dereferenceable(44) %0, i32 noundef %1) #1 comdat align 2 {
  %3 = alloca ptr, align 8
  %4 = alloca i32, align 4
  store ptr %0, ptr %3, align 8
  store i32 %1, ptr %4, align 4
  %5 = load ptr, ptr %3, align 8
  %6 = getelementptr inbounds nuw %"class.llvm::MCInstrInfo", ptr %5, i32 0, i32 0
  %7 = load ptr, ptr %6, align 8
  %8 = load i32, ptr %4, align 4
  %9 = zext i32 %8 to i64
  %10 = sub i64 0, %9
  %11 = getelementptr inbounds %"class.llvm::MCInstrDesc", ptr %7, i64 %10
  ret ptr %11
}

; Function Attrs: mustprogress nounwind uwtable
define linkonce_odr hidden void @_ZN4llvm5AlignC2Em(ptr noundef nonnull align 1 dereferenceable(1) %0, i64 noundef %1) unnamed_addr #1 comdat align 2 {
  %3 = alloca ptr, align 8
  %4 = alloca i64, align 8
  store ptr %0, ptr %3, align 8
  store i64 %1, ptr %4, align 8
  %5 = load ptr, ptr %3, align 8
  %6 = getelementptr inbounds nuw %"struct.llvm::Align", ptr %5, i32 0, i32 0
  store i8 0, ptr %6, align 1
  %7 = load i64, ptr %4, align 8
  %8 = call noundef i32 @_ZN4llvm7Log2_64Em(i64 noundef %7)
  %9 = trunc i32 %8 to i8
  %10 = getelementptr inbounds nuw %"struct.llvm::Align", ptr %5, i32 0, i32 0
  store i8 %9, ptr %10, align 1
  ret void
}

; Function Attrs: mustprogress nounwind uwtable
define linkonce_odr hidden noundef ptr @_ZNKSt8functionIFPN4llvm8ConstantEPKS1_jjjEEclES4_jjj(ptr noundef nonnull align 8 dereferenceable(32) %0, ptr noundef %1, i32 noundef %2, i32 noundef %3, i32 noundef %4) #1 comdat align 2 {
  %6 = alloca ptr, align 8
  %7 = alloca ptr, align 8
  %8 = alloca i32, align 4
  %9 = alloca i32, align 4
  %10 = alloca i32, align 4
  store ptr %0, ptr %6, align 8
  store ptr %1, ptr %7, align 8
  store i32 %2, ptr %8, align 4
  store i32 %3, ptr %9, align 4
  store i32 %4, ptr %10, align 4
  %11 = load ptr, ptr %6, align 8
  %12 = call noundef zeroext i1 @_ZNKSt14_Function_base8_M_emptyEv(ptr noundef nonnull align 8 dereferenceable(24) %11)
  br i1 %12, label %13, label %14

13:                                               ; preds = %5
  call void @_ZSt25__throw_bad_function_callv() #17
  unreachable

14:                                               ; preds = %5
  %15 = getelementptr inbounds nuw %"class.std::function", ptr %11, i32 0, i32 1
  %16 = load ptr, ptr %15, align 8
  %17 = getelementptr inbounds nuw %"class.std::_Function_base", ptr %11, i32 0, i32 0
  %18 = call noundef ptr %16(ptr noundef nonnull align 8 dereferenceable(16) %17, ptr noundef nonnull align 8 dereferenceable(8) %7, ptr noundef nonnull align 4 dereferenceable(4) %8, ptr noundef nonnull align 4 dereferenceable(4) %9, ptr noundef nonnull align 4 dereferenceable(4) %10)
  ret ptr %18
}

; Function Attrs: mustprogress nounwind uwtable
define internal noundef ptr @_ZNK4llvm8ArrayRefIZN12_GLOBAL__N_127X86FixupVectorConstantsPass18processInstructionERNS_15MachineFunctionERNS_17MachineBasicBlockERNS_12MachineInstrEE10FixupEntryE3endEv(ptr noundef nonnull align 8 dereferenceable(16) %0) #1 align 2 {
  %2 = alloca ptr, align 8
  store ptr %0, ptr %2, align 8
  %3 = load ptr, ptr %2, align 8
  %4 = getelementptr inbounds nuw %"class.llvm::ArrayRef.188", ptr %3, i32 0, i32 0
  %5 = load ptr, ptr %4, align 8
  %6 = getelementptr inbounds nuw %"class.llvm::ArrayRef.188", ptr %3, i32 0, i32 1
  %7 = load i64, ptr %6, align 8
  %8 = getelementptr inbounds %struct.FixupEntry, ptr %5, i64 %7
  ret ptr %8
}

; Function Attrs: mustprogress nounwind uwtable
define internal noundef ptr @_ZNK4llvm8ArrayRefIZN12_GLOBAL__N_127X86FixupVectorConstantsPass18processInstructionERNS_15MachineFunctionERNS_17MachineBasicBlockERNS_12MachineInstrEE10FixupEntryE5beginEv(ptr noundef nonnull align 8 dereferenceable(16) %0) #1 align 2 {
  %2 = alloca ptr, align 8
  store ptr %0, ptr %2, align 8
  %3 = load ptr, ptr %2, align 8
  %4 = getelementptr inbounds nuw %"class.llvm::ArrayRef.188", ptr %3, i32 0, i32 0
  %5 = load ptr, ptr %4, align 8
  ret ptr %5
}

; Function Attrs: mustprogress nounwind uwtable
define linkonce_odr hidden noundef ptr @_ZNK4llvm5Value7getTypeEv(ptr noundef nonnull align 8 dereferenceable(24) %0) #1 comdat align 2 {
  %2 = alloca ptr, align 8
  store ptr %0, ptr %2, align 8
  %3 = load ptr, ptr %2, align 8
  %4 = getelementptr inbounds nuw %"class.llvm::Value", ptr %3, i32 0, i32 4
  %5 = load ptr, ptr %4, align 8
  ret ptr %5
}

; Function Attrs: mustprogress nounwind uwtable
define internal noundef zeroext i1 @"_ZZN12_GLOBAL__N_127X86FixupVectorConstantsPass18processInstructionERN4llvm15MachineFunctionERNS1_17MachineBasicBlockERNS1_12MachineInstrEENK3$_0clENS1_8ArrayRefIZNS0_18processInstructionES3_S5_S7_E10FixupEntryEEjj"(ptr noundef nonnull align 8 dereferenceable(24) %0, ptr %1, i64 %2, i32 noundef %3, i32 noundef %4) #1 align 2 {
  %6 = alloca i1, align 1
  %7 = alloca %"class.llvm::ArrayRef.188", align 8
  %8 = alloca ptr, align 8
  %9 = alloca i32, align 4
  %10 = alloca i32, align 4
  %11 = alloca ptr, align 8
  %12 = alloca %"class.llvm::TypeSize", align 8
  %13 = alloca { i64, i8 }, align 8
  %14 = alloca ptr, align 8
  %15 = alloca ptr, align 8
  %16 = alloca ptr, align 8
  %17 = alloca ptr, align 8
  %18 = alloca ptr, align 8
  %19 = alloca i32, align 4
  %20 = alloca %"struct.llvm::Align", align 1
  %21 = getelementptr inbounds nuw { ptr, i64 }, ptr %7, i32 0, i32 0
  store ptr %1, ptr %21, align 8
  %22 = getelementptr inbounds nuw { ptr, i64 }, ptr %7, i32 0, i32 1
  store i64 %2, ptr %22, align 8
  store ptr %0, ptr %8, align 8
  store i32 %3, ptr %9, align 4
  store i32 %4, ptr %10, align 4
  %23 = load ptr, ptr %8, align 8
  %24 = getelementptr inbounds nuw %class.anon, ptr %23, i32 0, i32 2
  %25 = load ptr, ptr %24, align 8
  %26 = getelementptr inbounds nuw %class.anon, ptr %23, i32 0, i32 0
  %27 = load ptr, ptr %26, align 8
  %28 = load i32, ptr %10, align 4
  %29 = call noundef ptr @_ZN4llvm3X8619getConstantFromPoolERKNS_12MachineInstrEj(ptr noundef nonnull align 8 dereferenceable(70) %27, i32 noundef %28)
  store ptr %29, ptr %11, align 8
  %30 = load ptr, ptr %11, align 8
  %31 = icmp ne ptr %30, null
  br i1 %31, label %32, label %107

32:                                               ; preds = %5
  %33 = load i32, ptr %9, align 4
  %34 = icmp ne i32 %33, 0
  br i1 %34, label %35, label %37

35:                                               ; preds = %32
  %36 = load i32, ptr %9, align 4
  br label %43

37:                                               ; preds = %32
  %38 = load ptr, ptr %11, align 8
  %39 = call noundef ptr @_ZNK4llvm5Value7getTypeEv(ptr noundef nonnull align 8 dereferenceable(24) %38)
  %40 = call { i64, i8 } @_ZNK4llvm4Type22getPrimitiveSizeInBitsEv(ptr noundef nonnull align 8 dereferenceable(24) %39) #16
  store { i64, i8 } %40, ptr %13, align 8
  call void @llvm.memcpy.p0.p0.i64(ptr align 8 %12, ptr align 8 %13, i64 9, i1 false)
  %41 = call noundef i64 @_ZNK4llvm8TypeSizecvmEv(ptr noundef nonnull align 8 dereferenceable(9) %12)
  %42 = trunc i64 %41 to i32
  br label %43

43:                                               ; preds = %37, %35
  %44 = phi i32 [ %36, %35 ], [ %42, %37 ]
  store i32 %44, ptr %9, align 4
  store ptr %7, ptr %14, align 8
  %45 = load ptr, ptr %14, align 8
  %46 = call noundef ptr @_ZNK4llvm8ArrayRefIZN12_GLOBAL__N_127X86FixupVectorConstantsPass18processInstructionERNS_15MachineFunctionERNS_17MachineBasicBlockERNS_12MachineInstrEE10FixupEntryE5beginEv(ptr noundef nonnull align 8 dereferenceable(16) %45)
  store ptr %46, ptr %15, align 8
  %47 = load ptr, ptr %14, align 8
  %48 = call noundef ptr @_ZNK4llvm8ArrayRefIZN12_GLOBAL__N_127X86FixupVectorConstantsPass18processInstructionERNS_15MachineFunctionERNS_17MachineBasicBlockERNS_12MachineInstrEE10FixupEntryE3endEv(ptr noundef nonnull align 8 dereferenceable(16) %47)
  store ptr %48, ptr %16, align 8
  br label %49

49:                                               ; preds = %103, %43
  %50 = load ptr, ptr %15, align 8
  %51 = load ptr, ptr %16, align 8
  %52 = icmp ne ptr %50, %51
  br i1 %52, label %53, label %106

53:                                               ; preds = %49
  %54 = load ptr, ptr %15, align 8
  store ptr %54, ptr %17, align 8
  %55 = load ptr, ptr %17, align 8
  %56 = getelementptr inbounds nuw %struct.FixupEntry, ptr %55, i32 0, i32 0
  %57 = load i32, ptr %56, align 8
  %58 = icmp ne i32 %57, 0
  br i1 %58, label %59, label %102

59:                                               ; preds = %53
  %60 = load ptr, ptr %17, align 8
  %61 = getelementptr inbounds nuw %struct.FixupEntry, ptr %60, i32 0, i32 3
  %62 = load ptr, ptr %11, align 8
  %63 = load i32, ptr %9, align 4
  %64 = load ptr, ptr %17, align 8
  %65 = getelementptr inbounds nuw %struct.FixupEntry, ptr %64, i32 0, i32 1
  %66 = load i32, ptr %65, align 4
  %67 = load ptr, ptr %17, align 8
  %68 = getelementptr inbounds nuw %struct.FixupEntry, ptr %67, i32 0, i32 2
  %69 = load i32, ptr %68, align 8
  %70 = call noundef ptr @_ZNKSt8functionIFPN4llvm8ConstantEPKS1_jjjEEclES4_jjj(ptr noundef nonnull align 8 dereferenceable(32) %61, ptr noundef %62, i32 noundef %63, i32 noundef %66, i32 noundef %69)
  store ptr %70, ptr %18, align 8
  %71 = load ptr, ptr %18, align 8
  %72 = icmp ne ptr %71, null
  br i1 %72, label %73, label %101

73:                                               ; preds = %59
  %74 = getelementptr inbounds nuw %class.anon, ptr %23, i32 0, i32 1
  %75 = load ptr, ptr %74, align 8
  %76 = load ptr, ptr %75, align 8
  %77 = load ptr, ptr %18, align 8
  %78 = load ptr, ptr %17, align 8
  %79 = getelementptr inbounds nuw %struct.FixupEntry, ptr %78, i32 0, i32 2
  %80 = load i32, ptr %79, align 8
  %81 = sdiv i32 %80, 8
  %82 = sext i32 %81 to i64
  call void @_ZN4llvm5AlignC2Em(ptr noundef nonnull align 1 dereferenceable(1) %20, i64 noundef %82)
  %83 = getelementptr inbounds nuw %"struct.llvm::Align", ptr %20, i32 0, i32 0
  %84 = load i8, ptr %83, align 1
  %85 = call noundef i32 @_ZN4llvm19MachineConstantPool20getConstantPoolIndexEPKNS_8ConstantENS_5AlignE(ptr noundef nonnull align 8 dereferenceable(64) %76, ptr noundef %77, i8 %84)
  store i32 %85, ptr %19, align 4
  %86 = getelementptr inbounds nuw %class.anon, ptr %23, i32 0, i32 0
  %87 = load ptr, ptr %86, align 8
  %88 = getelementptr inbounds nuw %"class.(anonymous namespace)::X86FixupVectorConstantsPass", ptr %25, i32 0, i32 1
  %89 = load ptr, ptr %88, align 8
  %90 = getelementptr inbounds i8, ptr %89, i64 8
  %91 = load ptr, ptr %17, align 8
  %92 = getelementptr inbounds nuw %struct.FixupEntry, ptr %91, i32 0, i32 0
  %93 = load i32, ptr %92, align 8
  %94 = call noundef nonnull align 8 dereferenceable(32) ptr @_ZNK4llvm11MCInstrInfo3getEj(ptr noundef nonnull align 8 dereferenceable(44) %90, i32 noundef %93)
  call void @_ZN4llvm12MachineInstr7setDescERKNS_11MCInstrDescE(ptr noundef nonnull align 8 dereferenceable(70) %87, ptr noundef nonnull align 8 dereferenceable(32) %94)
  %95 = getelementptr inbounds nuw %class.anon, ptr %23, i32 0, i32 0
  %96 = load ptr, ptr %95, align 8
  %97 = load i32, ptr %10, align 4
  %98 = add i32 %97, 3
  %99 = call noundef nonnull align 8 dereferenceable(32) ptr @_ZN4llvm12MachineInstr10getOperandEj(ptr noundef nonnull align 8 dereferenceable(70) %96, i32 noundef %98)
  %100 = load i32, ptr %19, align 4
  call void @_ZN4llvm14MachineOperand8setIndexEi(ptr noundef nonnull align 8 dereferenceable(32) %99, i32 noundef %100)
  store i1 true, ptr %6, align 1
  br label %108

101:                                              ; preds = %59
  br label %102

102:                                              ; preds = %101, %53
  br label %103

103:                                              ; preds = %102
  %104 = load ptr, ptr %15, align 8
  %105 = getelementptr inbounds %struct.FixupEntry, ptr %104, i32 1
  store ptr %105, ptr %15, align 8
  br label %49

106:                                              ; preds = %49
  br label %107

107:                                              ; preds = %106, %5
  store i1 false, ptr %6, align 1
  br label %108

108:                                              ; preds = %107, %73
  %109 = load i1, ptr %6, align 1
  ret i1 %109
}