; Function Attrs: mustprogress nounwind uwtable
define internal fastcc noundef zeroext i1 @"_ZZN12_GLOBAL__N_127X86FixupVectorConstantsPass18processInstructionERN4llvm15MachineFunctionERNS1_17MachineBasicBlockERNS1_12MachineInstrEENK3$_0clENS1_8ArrayRefIZNS0_18processInstructionES3_S5_S7_E10FixupEntryEEjj"(ptr nocapture noundef nonnull readonly align 8 dereferenceable(24) %0, ptr %1, i64 %2, i32 noundef %3, i32 noundef %4) unnamed_addr #0 align 2 {
  %6 = alloca ptr, align 8
  %7 = alloca i32, align 4
  %8 = alloca i32, align 4
  %9 = alloca i32, align 4
  %10 = alloca %"class.llvm::TypeSize", align 8
  %11 = getelementptr inbounds nuw i8, ptr %0, i64 16
  %12 = load ptr, ptr %11, align 8
  %13 = load ptr, ptr %0, align 8
  %14 = tail call noundef ptr @_ZN4llvm3X8619getConstantFromPoolERKNS_12MachineInstrEj(ptr noundef nonnull align 8 dereferenceable(70) %13, i32 noundef %4) #16
  %.not = icmp eq ptr %14, null
  br i1 %.not, label %.loopexit, label %15

15:                                               ; preds = %5
  %.not28 = icmp eq i32 %3, 0
  br i1 %.not28, label %16, label %22

16:                                               ; preds = %15
  %17 = getelementptr inbounds nuw i8, ptr %14, i64 8
  %18 = load ptr, ptr %17, align 8
  %19 = tail call { i64, i8 } @_ZNK4llvm4Type22getPrimitiveSizeInBitsEv(ptr noundef nonnull align 8 dereferenceable(24) %18) #20
  %.fca.0.extract = extractvalue { i64, i8 } %19, 0
  %.fca.1.extract = extractvalue { i64, i8 } %19, 1
  store i64 %.fca.0.extract, ptr %10, align 8
  %.sroa.2.0..sroa_idx = getelementptr inbounds i8, ptr %10, i64 8
  store i8 %.fca.1.extract, ptr %.sroa.2.0..sroa_idx, align 8
  %20 = call noundef i64 @_ZNK4llvm8TypeSizecvmEv(ptr noundef nonnull align 8 dereferenceable(9) %10) #16
  %21 = trunc i64 %20 to i32
  br label %22

22:                                               ; preds = %15, %16
  %23 = phi i32 [ %21, %16 ], [ %3, %15 ]
  %24 = getelementptr inbounds %struct.FixupEntry, ptr %1, i64 %2
  %.not2939 = icmp eq i64 %2, 0
  br i1 %.not2939, label %.loopexit, label %.lr.ph

.lr.ph:                                           ; preds = %22, %65
  %.02440 = phi ptr [ %66, %65 ], [ %1, %22 ]
  %25 = load i32, ptr %.02440, align 8
  %.not30 = icmp eq i32 %25, 0
  br i1 %.not30, label %65, label %26

26:                                               ; preds = %.lr.ph
  %27 = getelementptr inbounds nuw i8, ptr %.02440, i64 4
  %28 = load i32, ptr %27, align 4
  %29 = getelementptr inbounds nuw i8, ptr %.02440, i64 8
  %30 = load i32, ptr %29, align 8
  call void @llvm.lifetime.start.p0(i64 8, ptr nonnull %6)
  call void @llvm.lifetime.start.p0(i64 4, ptr nonnull %7)
  call void @llvm.lifetime.start.p0(i64 4, ptr nonnull %8)
  call void @llvm.lifetime.start.p0(i64 4, ptr nonnull %9)
  store ptr %14, ptr %6, align 8
  store i32 %23, ptr %7, align 4
  store i32 %28, ptr %8, align 4
  store i32 %30, ptr %9, align 4
  %31 = getelementptr inbounds i8, ptr %.02440, i64 32
  %32 = load ptr, ptr %31, align 8
  %.not.i.i = icmp eq ptr %32, null
  br i1 %.not.i.i, label %33, label %_ZNKSt8functionIFPN4llvm8ConstantEPKS1_jjjEEclES4_jjj.exit

33:                                               ; preds = %26
  call void @_ZSt25__throw_bad_function_callv() #17
  unreachable

_ZNKSt8functionIFPN4llvm8ConstantEPKS1_jjjEEclES4_jjj.exit: ; preds = %26
  %34 = getelementptr inbounds nuw i8, ptr %.02440, i64 16
  %35 = getelementptr inbounds i8, ptr %.02440, i64 40
  %36 = load ptr, ptr %35, align 8
  %37 = call noundef ptr %36(ptr noundef nonnull align 8 dereferenceable(16) %34, ptr noundef nonnull align 8 dereferenceable(8) %6, ptr noundef nonnull align 4 dereferenceable(4) %7, ptr noundef nonnull align 4 dereferenceable(4) %8, ptr noundef nonnull align 4 dereferenceable(4) %9) #16
  call void @llvm.lifetime.end.p0(i64 8, ptr nonnull %6)
  call void @llvm.lifetime.end.p0(i64 4, ptr nonnull %7)
  call void @llvm.lifetime.end.p0(i64 4, ptr nonnull %8)
  call void @llvm.lifetime.end.p0(i64 4, ptr nonnull %9)
  %.not31 = icmp eq ptr %37, null
  br i1 %.not31, label %65, label %38

38:                                               ; preds = %_ZNKSt8functionIFPN4llvm8ConstantEPKS1_jjjEEclES4_jjj.exit
  %39 = getelementptr inbounds nuw i8, ptr %.02440, i64 8
  %40 = getelementptr inbounds nuw i8, ptr %0, i64 8
  %41 = load ptr, ptr %40, align 8
  %42 = load ptr, ptr %41, align 8
  %43 = load i32, ptr %39, align 8
  %44 = sdiv i32 %43, 8
  %45 = sext i32 %44 to i64
  %46 = call range(i64 0, 65) i64 @llvm.ctlz.i64(i64 %45, i1 false)
  %47 = trunc nuw nsw i64 %46 to i8
  %48 = sub nsw i8 63, %47
  %49 = call noundef i32 @_ZN4llvm19MachineConstantPool20getConstantPoolIndexEPKNS_8ConstantENS_5AlignE(ptr noundef nonnull align 8 dereferenceable(64) %42, ptr noundef nonnull %37, i8 %48) #16
  %50 = load ptr, ptr %0, align 8
  %51 = getelementptr inbounds nuw i8, ptr %12, i64 56
  %52 = load ptr, ptr %51, align 8
  %53 = getelementptr inbounds i8, ptr %52, i64 8
  %54 = load i32, ptr %.02440, align 8
  %55 = load ptr, ptr %53, align 8
  %56 = zext i32 %54 to i64
  %57 = sub nsw i64 0, %56
  %58 = getelementptr inbounds %"class.llvm::MCInstrDesc", ptr %55, i64 %57
  call void @_ZN4llvm12MachineInstr7setDescERKNS_11MCInstrDescE(ptr noundef nonnull align 8 dereferenceable(70) %50, ptr noundef nonnull align 8 dereferenceable(32) %58) #16
  %59 = load ptr, ptr %0, align 8
  %60 = add nuw nsw i32 %4, 3
  %61 = getelementptr inbounds nuw i8, ptr %59, i64 32
  %62 = load ptr, ptr %61, align 8
  %63 = zext i32 %60 to i64
  %64 = getelementptr inbounds %"class.llvm::MachineOperand", ptr %62, i64 %63, i32 3
  store i32 %49, ptr %64, align 8
  br label %.loopexit

65:                                               ; preds = %.lr.ph, %_ZNKSt8functionIFPN4llvm8ConstantEPKS1_jjjEEclES4_jjj.exit
  %66 = getelementptr inbounds i8, ptr %.02440, i64 48
  %.not29 = icmp eq ptr %66, %24
  br i1 %.not29, label %.loopexit, label %.lr.ph

.loopexit:                                        ; preds = %65, %22, %5, %38
  %.0 = phi i1 [ true, %38 ], [ false, %5 ], [ false, %22 ], [ false, %65 ]
  ret i1 %.0
}